Certificate:
    Data:
        Version: 3 (0x2)
        Serial Number: 1 (0x1)
        Signature Algorithm: sha1WithRSAEncryption
        Issuer: C=BA, ST=RS, L=Banja Luka, O=Nikolina organizacija, CN=CA tijelo/emailAddress=ca@mail.com
        Validity
            Not Before: Jan 23 18:30:50 2023 GMT
            Not After : Jul 24 18:30:50 2023 GMT
        Subject: C=BA, ST=RS, O=Nikolina organizacija, CN=Nikola Granolic/emailAddress=nikola@mail.com
        Subject Public Key Info:
            Public Key Algorithm: rsaEncryption
                RSA Public-Key: (2048 bit)
                Modulus:
                    00:af:2d:3a:a3:8d:a9:3b:0c:25:31:f8:98:06:4c:
                    a6:54:58:28:af:ca:86:70:e4:32:4b:68:cc:49:7c:
                    49:83:9a:48:62:61:a4:da:a5:03:48:a7:3a:95:52:
                    16:10:50:ec:e8:8d:09:d6:ac:4d:1c:dd:1d:c3:f7:
                    2c:ec:8f:8c:5a:9a:7e:64:b3:31:16:8c:0f:08:bd:
                    10:f3:40:62:a2:bd:71:8d:b7:06:b8:4c:82:8f:86:
                    14:fc:c6:0e:ca:7a:30:78:8a:a8:2d:cd:f5:60:ff:
                    49:d5:ba:08:ff:cf:96:c8:68:9d:c8:82:7c:17:00:
                    bc:13:75:de:7b:69:71:e9:8e:7a:71:1a:34:8d:6b:
                    29:e0:d5:5d:5e:bd:95:17:fe:70:d7:2e:38:ad:4b:
                    6a:e6:c7:e0:d0:e2:ff:bc:1b:ee:7f:27:f8:6b:86:
                    4e:95:1e:16:50:93:82:fb:fb:a2:4d:50:6a:82:6b:
                    30:af:87:f7:5e:c3:d8:e9:96:44:47:87:85:22:66:
                    a6:d1:62:62:84:21:f0:9e:26:88:fa:d2:7c:ea:bb:
                    f6:d1:32:af:05:d9:0c:c4:4b:ce:41:76:3d:9a:97:
                    09:de:f3:67:d3:d1:32:f7:96:ab:7b:43:5b:6d:4f:
                    71:9f:0e:8e:82:cd:2c:bf:86:19:f9:b6:13:0b:ab:
                    a8:b9
                Exponent: 65537 (0x10001)
        X509v3 extensions:
            X509v3 Basic Constraints: 
                CA:FALSE
            X509v3 Key Usage: 
                Digital Signature, Non Repudiation, Data Encipherment
            Netscape Comment: 
                OpenSSL Generated Certificate
            X509v3 Subject Key Identifier: 
                7B:DA:17:83:A5:4F:06:78:56:AD:00:92:78:8E:43:55:F1:0B:89:9C
            X509v3 Authority Key Identifier: 
                keyid:3A:E3:E2:11:AA:24:2F:C6:02:6F:2B:03:89:56:68:4A:9E:CA:FA:B3

            X509v3 CRL Distribution Points: 

                Full Name:
                  URI:http://192.168.21.89/rootcrl.pem

    Signature Algorithm: sha1WithRSAEncryption
         95:84:d0:2b:3c:11:13:00:6a:63:9c:20:3e:a5:14:76:3c:9c:
         90:e6:70:d3:6d:9f:7f:84:24:cd:99:fa:e7:e6:47:2b:95:51:
         35:5f:b8:a1:62:f9:d4:d8:4f:ab:34:af:c2:f1:2d:99:cc:b3:
         80:13:f4:d2:54:a7:55:64:fd:1d:77:51:22:34:6e:bd:f6:c2:
         14:dc:ac:5a:cf:86:17:f0:5c:ab:76:ec:e5:88:37:4a:e4:fb:
         56:9f:25:ae:76:29:00:1e:bf:83:1c:cc:1e:37:2a:31:41:88:
         60:4a:d2:e1:f1:04:00:b6:59:d2:e3:de:6d:bb:69:17:56:d2:
         57:32:97:c4:59:d4:d3:4c:f6:75:1a:4c:bb:6a:c2:58:39:60:
         6e:f4:00:b0:09:44:7a:68:d8:25:b2:42:22:0f:3d:b5:9d:53:
         e9:c0:d7:9b:5a:ed:d3:a7:b1:50:83:75:7b:02:26:7a:67:a6:
         ba:8d:29:47:65:77:3a:6b:81:3b:9c:7f:99:f0:29:d5:83:bf:
         07:86:9f:b1:a5:cc:2d:c1:ff:33:bc:8a:56:fb:1c:b7:b1:cb:
         50:75:1f:94:90:72:38:98:a9:f7:0d:b5:6e:93:b0:24:7e:d1:
         6c:29:04:dd:bf:62:62:de:39:8b:9d:ca:3a:07:98:3d:5e:c4:
         03:d5:4b:de:0a:81:1a:c4:fa:69:44:e4:94:f3:1f:22:64:b3:
         b4:77:ee:af:6d:68:54:21:ed:fe:97:f2:17:a1:60:69:56:82:
         95:3f:42:9a:7a:20:3e:2f:4a:a1:03:c2:2e:f2:dd:c6:9f:f7:
         0e:b7:60:21:8b:6c:0c:40:41:19:78:d9:45:02:3b:af:61:ce:
         1e:97:57:31:a8:42:6f:92:d1:06:59:82:77:49:08:c2:77:c9:
         66:95:e8:f8:ed:20:0e:1d:27:60:79:b7:11:85:96:0d:7d:7f:
         0d:27:39:dc:ec:f2:8c:c9:5b:14:68:ff:2a:da:2e:11:cc:dd:
         f1:5a:04:6d:cc:56:68:3a:33:70:d0:b0:c7:86:96:87:a5:e7:
         4c:39:98:61:b4:37:3b:9b:20:39:86:4d:ce:c3:0d:4c:8b:dd:
         33:4e:ca:51:0b:3e:54:a0:60:45:33:c4:8a:a6:3f:80:b3:5f:
         98:fd:df:9f:fc:5f:bf:40:03:6d:55:52:6c:35:c1:76:f0:5d:
         88:c6:db:a3:f9:4a:ff:54:6b:c2:88:61:a7:b2:98:4a:52:92:
         1f:ab:97:ba:3e:89:ef:19:b1:7b:96:4e:00:5e:80:9e:24:52:
         7d:af:88:73:88:4e:c4:81:ce:e6:e0:54:2f:2c:77:07:e4:91:
         8c:62:9f:fd:b7:81:54:3d
-----BEGIN CERTIFICATE-----
MIIFKzCCAxOgAwIBAgIBATANBgkqhkiG9w0BAQUFADB/MQswCQYDVQQGEwJCQTEL
MAkGA1UECBMCUlMxEzARBgNVBAcTCkJhbmphIEx1a2ExHjAcBgNVBAoTFU5pa29s
aW5hIG9yZ2FuaXphY2lqYTESMBAGA1UEAxMJQ0EgdGlqZWxvMRowGAYJKoZIhvcN
AQkBFgtjYUBtYWlsLmNvbTAeFw0yMzAxMjMxODMwNTBaFw0yMzA3MjQxODMwNTBa
MHQxCzAJBgNVBAYTAkJBMQswCQYDVQQIEwJSUzEeMBwGA1UEChMVTmlrb2xpbmEg
b3JnYW5pemFjaWphMRgwFgYDVQQDEw9OaWtvbGEgR3Jhbm9saWMxHjAcBgkqhkiG
9w0BCQEWD25pa29sYUBtYWlsLmNvbTCCASIwDQYJKoZIhvcNAQEBBQADggEPADCC
AQoCggEBAK8tOqONqTsMJTH4mAZMplRYKK/KhnDkMktozEl8SYOaSGJhpNqlA0in
OpVSFhBQ7OiNCdasTRzdHcP3LOyPjFqafmSzMRaMDwi9EPNAYqK9cY23BrhMgo+G
FPzGDsp6MHiKqC3N9WD/SdW6CP/PlshonciCfBcAvBN13ntpcemOenEaNI1rKeDV
XV69lRf+cNcuOK1LaubH4NDi/7wb7n8n+GuGTpUeFlCTgvv7ok1QaoJrMK+H917D
2OmWREeHhSJmptFiYoQh8J4miPrSfOq79tEyrwXZDMRLzkF2PZqXCd7zZ9PRMveW
q3tDW21PcZ8OjoLNLL+GGfm2EwurqLkCAwEAAaOBvDCBuTAJBgNVHRMEAjAAMAsG
A1UdDwQEAwIE0DAsBglghkgBhvhCAQ0EHxYdT3BlblNTTCBHZW5lcmF0ZWQgQ2Vy
dGlmaWNhdGUwHQYDVR0OBBYEFHvaF4OlTwZ4Vq0AkniOQ1XxC4mcMB8GA1UdIwQY
MBaAFDrj4hGqJC/GAm8rA4lWaEqeyvqzMDEGA1UdHwQqMCgwJqAkoCKGIGh0dHA6
Ly8xOTIuMTY4LjIxLjg5L3Jvb3RjcmwucGVtMA0GCSqGSIb3DQEBBQUAA4ICAQCV
hNArPBETAGpjnCA+pRR2PJyQ5nDTbZ9/hCTNmfrn5kcrlVE1X7ihYvnU2E+rNK/C
8S2ZzLOAE/TSVKdVZP0dd1EiNG699sIU3Kxaz4YX8FyrduzliDdK5PtWnyWudikA
Hr+DHMweNyoxQYhgStLh8QQAtlnS495tu2kXVtJXMpfEWdTTTPZ1Gky7asJYOWBu
9ACwCUR6aNglskIiDz21nVPpwNebWu3Tp7FQg3V7AiZ6Z6a6jSlHZXc6a4E7nH+Z
8CnVg78Hhp+xpcwtwf8zvIpW+xy3sctQdR+UkHI4mKn3DbVuk7AkftFsKQTdv2Ji
3jmLnco6B5g9XsQD1UveCoEaxPppROSU8x8iZLO0d+6vbWhUIe3+l/IXoWBpVoKV
P0KaeiA+L0qhA8Iu8t3Gn/cOt2Ahi2wMQEEZeNlFAjuvYc4el1cxqEJvktEGWYJ3
SQjCd8lmlej47SAOHSdgebcRhZYNfX8NJznc7PKMyVsUaP8q2i4RzN3xWgRtzFZo
OjNw0LDHhpaHpedMOZhhtDc7myA5hk3Oww1Mi90zTspRCz5UoGBFM8SKpj+As1+Y
/d+f/F+/QANtVVJsNcF28F2Ixtuj+Ur/VGvCiGGnsphKUpIfq5e6PonvGbF7lk4A
XoCeJFJ9r4hziE7Egc7m4FQvLHcH5JGMYp/9t4FUPQ==
-----END CERTIFICATE-----
