Certificate:
    Data:
        Version: 3 (0x2)
        Serial Number: 3 (0x3)
        Signature Algorithm: sha1WithRSAEncryption
        Issuer: C=BA, ST=RS, L=Banja Luka, O=Nikolina organizacija, CN=CA tijelo/emailAddress=ca@mail.com
        Validity
            Not Before: Jan 30 10:35:08 2023 GMT
            Not After : Jul 31 10:35:08 2023 GMT
        Subject: C=BA, ST=RS, O=Nikolina organizacija, CN=odbrana/emailAddress=odbrana@mail.com
        Subject Public Key Info:
            Public Key Algorithm: rsaEncryption
                RSA Public-Key: (2048 bit)
                Modulus:
                    00:af:2d:3a:a3:8d:a9:3b:0c:25:31:f8:98:06:4c:
                    a6:54:58:28:af:ca:86:70:e4:32:4b:68:cc:49:7c:
                    49:83:9a:48:62:61:a4:da:a5:03:48:a7:3a:95:52:
                    16:10:50:ec:e8:8d:09:d6:ac:4d:1c:dd:1d:c3:f7:
                    2c:ec:8f:8c:5a:9a:7e:64:b3:31:16:8c:0f:08:bd:
                    10:f3:40:62:a2:bd:71:8d:b7:06:b8:4c:82:8f:86:
                    14:fc:c6:0e:ca:7a:30:78:8a:a8:2d:cd:f5:60:ff:
                    49:d5:ba:08:ff:cf:96:c8:68:9d:c8:82:7c:17:00:
                    bc:13:75:de:7b:69:71:e9:8e:7a:71:1a:34:8d:6b:
                    29:e0:d5:5d:5e:bd:95:17:fe:70:d7:2e:38:ad:4b:
                    6a:e6:c7:e0:d0:e2:ff:bc:1b:ee:7f:27:f8:6b:86:
                    4e:95:1e:16:50:93:82:fb:fb:a2:4d:50:6a:82:6b:
                    30:af:87:f7:5e:c3:d8:e9:96:44:47:87:85:22:66:
                    a6:d1:62:62:84:21:f0:9e:26:88:fa:d2:7c:ea:bb:
                    f6:d1:32:af:05:d9:0c:c4:4b:ce:41:76:3d:9a:97:
                    09:de:f3:67:d3:d1:32:f7:96:ab:7b:43:5b:6d:4f:
                    71:9f:0e:8e:82:cd:2c:bf:86:19:f9:b6:13:0b:ab:
                    a8:b9
                Exponent: 65537 (0x10001)
        X509v3 extensions:
            X509v3 Basic Constraints: 
                CA:FALSE
            X509v3 Key Usage: 
                Digital Signature, Non Repudiation, Data Encipherment
            Netscape Comment: 
                OpenSSL Generated Certificate
            X509v3 Subject Key Identifier: 
                7B:DA:17:83:A5:4F:06:78:56:AD:00:92:78:8E:43:55:F1:0B:89:9C
            X509v3 Authority Key Identifier: 
                keyid:3A:E3:E2:11:AA:24:2F:C6:02:6F:2B:03:89:56:68:4A:9E:CA:FA:B3

            X509v3 CRL Distribution Points: 

                Full Name:
                  URI:http://192.168.21.89/rootcrl.pem

    Signature Algorithm: sha1WithRSAEncryption
         a9:1b:4f:03:36:f0:10:0d:f9:b4:42:26:26:0a:17:c5:4b:61:
         99:91:20:e7:40:fa:c8:83:84:41:17:4b:b2:9d:d0:e4:91:44:
         f4:1b:f2:89:b0:81:3a:77:23:29:08:a2:38:e4:34:b7:61:0f:
         d9:ff:04:bd:5b:a5:62:77:db:5f:4d:19:9e:7c:bf:36:f8:b6:
         01:55:52:b9:ff:b2:e4:b5:c9:70:98:27:85:e5:eb:40:20:99:
         79:d0:68:4d:dd:a0:c9:65:6c:7c:a1:93:90:6e:3c:f7:4e:0c:
         1f:c6:1e:e3:9e:54:1e:aa:38:c6:57:ea:61:cf:c5:21:1c:5b:
         18:8c:29:00:63:07:3a:fb:49:05:a3:d1:a2:d8:05:ea:22:42:
         7f:9a:44:96:44:35:c2:67:8b:b4:a8:48:98:03:e1:c2:4d:c4:
         d9:3f:6f:2c:64:b5:ee:de:e9:33:c3:f2:4f:f8:4a:e3:c1:12:
         06:f5:0b:e1:21:45:4e:d3:7b:32:41:d3:38:fd:e2:b6:6a:f8:
         76:be:b5:3f:51:6a:db:92:79:1a:35:2a:3b:51:ea:2e:20:5b:
         f1:7a:6e:f0:60:7c:a3:2e:27:3a:43:a2:57:90:54:61:38:ad:
         f5:97:6e:20:36:7f:a4:54:ec:78:4c:9b:fc:16:32:50:ee:24:
         6a:36:38:b1:e4:19:c1:47:47:6e:02:e2:19:29:26:f1:8d:9f:
         2d:e2:03:42:80:dd:f4:29:53:c5:b6:31:70:06:1e:c0:46:fa:
         5f:b4:61:d0:89:21:dd:c9:cf:41:8e:1a:1a:61:0b:d6:e3:b0:
         fe:4c:2d:a9:98:29:71:f4:d9:d9:16:6f:55:d0:89:f1:08:9b:
         1b:64:4e:43:91:bd:21:cd:0d:98:b9:09:97:fe:0f:fd:55:aa:
         fd:cc:83:72:24:99:ea:de:e0:aa:37:c0:c5:81:63:56:de:33:
         3d:54:0e:69:af:1c:c7:d4:dc:33:22:1e:54:fa:d8:f1:b5:e9:
         4b:80:b2:c4:11:f0:74:51:b2:e6:da:50:4c:25:2a:6b:d4:2f:
         ad:65:a8:93:98:f4:a7:ac:5e:37:fc:b3:c1:f8:3e:f2:e6:de:
         b6:63:a5:59:5f:4c:f6:75:8b:28:c7:d1:fc:87:56:e7:a7:f6:
         07:eb:4f:dd:cd:1a:3c:0f:34:66:25:93:e5:5f:1b:f9:40:ba:
         be:92:f1:0b:da:62:bc:3e:09:eb:bc:85:1a:aa:8c:d7:67:12:
         ee:23:d5:ec:f1:fe:a1:4a:8b:95:89:22:d6:25:29:4a:6b:9e:
         35:39:d9:0e:79:c4:e4:3a:4d:69:cb:a1:ae:57:8f:69:59:ec:
         6e:07:62:8c:1e:40:64:10
-----BEGIN CERTIFICATE-----
MIIFJDCCAwygAwIBAgIBAzANBgkqhkiG9w0BAQUFADB/MQswCQYDVQQGEwJCQTEL
MAkGA1UECBMCUlMxEzARBgNVBAcTCkJhbmphIEx1a2ExHjAcBgNVBAoTFU5pa29s
aW5hIG9yZ2FuaXphY2lqYTESMBAGA1UEAxMJQ0EgdGlqZWxvMRowGAYJKoZIhvcN
AQkBFgtjYUBtYWlsLmNvbTAeFw0yMzAxMzAxMDM1MDhaFw0yMzA3MzExMDM1MDha
MG0xCzAJBgNVBAYTAkJBMQswCQYDVQQIEwJSUzEeMBwGA1UEChMVTmlrb2xpbmEg
b3JnYW5pemFjaWphMRAwDgYDVQQDEwdvZGJyYW5hMR8wHQYJKoZIhvcNAQkBFhBv
ZGJyYW5hQG1haWwuY29tMIIBIjANBgkqhkiG9w0BAQEFAAOCAQ8AMIIBCgKCAQEA
ry06o42pOwwlMfiYBkymVFgor8qGcOQyS2jMSXxJg5pIYmGk2qUDSKc6lVIWEFDs
6I0J1qxNHN0dw/cs7I+MWpp+ZLMxFowPCL0Q80Bior1xjbcGuEyCj4YU/MYOynow
eIqoLc31YP9J1boI/8+WyGidyIJ8FwC8E3Xee2lx6Y56cRo0jWsp4NVdXr2VF/5w
1y44rUtq5sfg0OL/vBvufyf4a4ZOlR4WUJOC+/uiTVBqgmswr4f3XsPY6ZZER4eF
Imam0WJihCHwniaI+tJ86rv20TKvBdkMxEvOQXY9mpcJ3vNn09Ey95are0NbbU9x
nw6Ogs0sv4YZ+bYTC6uouQIDAQABo4G8MIG5MAkGA1UdEwQCMAAwCwYDVR0PBAQD
AgTQMCwGCWCGSAGG+EIBDQQfFh1PcGVuU1NMIEdlbmVyYXRlZCBDZXJ0aWZpY2F0
ZTAdBgNVHQ4EFgQUe9oXg6VPBnhWrQCSeI5DVfELiZwwHwYDVR0jBBgwFoAUOuPi
EaokL8YCbysDiVZoSp7K+rMwMQYDVR0fBCowKDAmoCSgIoYgaHR0cDovLzE5Mi4x
NjguMjEuODkvcm9vdGNybC5wZW0wDQYJKoZIhvcNAQEFBQADggIBAKkbTwM28BAN
+bRCJiYKF8VLYZmRIOdA+siDhEEXS7Kd0OSRRPQb8omwgTp3IykIojjkNLdhD9n/
BL1bpWJ3219NGZ58vzb4tgFVUrn/suS1yXCYJ4Xl60AgmXnQaE3doMllbHyhk5Bu
PPdODB/GHuOeVB6qOMZX6mHPxSEcWxiMKQBjBzr7SQWj0aLYBeoiQn+aRJZENcJn
i7SoSJgD4cJNxNk/byxkte7e6TPD8k/4SuPBEgb1C+EhRU7TezJB0zj94rZq+Ha+
tT9RatuSeRo1KjtR6i4gW/F6bvBgfKMuJzpDoleQVGE4rfWXbiA2f6RU7HhMm/wW
MlDuJGo2OLHkGcFHR24C4hkpJvGNny3iA0KA3fQpU8W2MXAGHsBG+l+0YdCJId3J
z0GOGhphC9bjsP5MLamYKXH02dkWb1XQifEImxtkTkORvSHNDZi5CZf+D/1Vqv3M
g3Ikmere4Ko3wMWBY1beMz1UDmmvHMfU3DMiHlT62PG16UuAssQR8HRRsubaUEwl
KmvUL61lqJOY9KesXjf8s8H4PvLm3rZjpVlfTPZ1iyjH0fyHVuen9gfrT93NGjwP
NGYlk+VfG/lAur6S8QvaYrw+Ceu8hRqqjNdnEu4j1ezx/qFKi5WJItYlKUprnjU5
2Q55xOQ6TWnLoa5Xj2lZ7G4HYoweQGQQ
-----END CERTIFICATE-----
