Certificate:
    Data:
        Version: 3 (0x2)
        Serial Number: 2 (0x2)
        Signature Algorithm: sha1WithRSAEncryption
        Issuer: C=BA, ST=RS, L=Banja Luka, O=Nikolina organizacija, CN=CA tijelo/emailAddress=ca@mail.com
        Validity
            Not Before: Jan 23 18:31:58 2023 GMT
            Not After : Jul 24 18:31:58 2023 GMT
        Subject: C=BA, ST=RS, O=Nikolina organizacija, CN=Djordje Joldzic/emailAddress=djordje@mail.com
        Subject Public Key Info:
            Public Key Algorithm: rsaEncryption
                RSA Public-Key: (2048 bit)
                Modulus:
                    00:e4:05:dd:ec:e1:86:66:de:7f:90:cb:48:96:1a:
                    ef:a5:6a:5b:2e:7f:9c:9a:ed:9f:bb:7a:33:c4:6f:
                    73:bd:79:bd:4c:a1:e3:fc:32:06:c0:ef:2f:40:bb:
                    bc:d6:95:7c:b7:75:24:2d:3c:ce:b9:b4:dd:7c:13:
                    fa:57:ad:6b:0b:01:40:b4:16:84:d5:39:54:3f:69:
                    32:b4:2f:39:3b:17:8b:a9:35:9a:1b:1a:57:90:25:
                    74:cc:f4:ee:8d:84:53:9f:da:72:c4:eb:ed:5e:22:
                    22:ab:1a:ab:3a:f3:7d:c9:30:01:b3:62:50:42:4c:
                    47:3a:6d:6d:42:44:12:60:28:0a:cd:a8:01:f4:27:
                    f6:10:90:65:68:38:5e:5c:67:7c:3d:a5:87:ee:be:
                    8d:59:d7:5d:37:5d:0d:10:4b:7e:b2:31:e9:1f:89:
                    d0:07:a9:3a:c1:35:85:27:e1:98:ae:93:f9:9e:79:
                    86:1c:82:dc:18:93:a6:60:b5:58:52:cc:6d:2f:6b:
                    cc:b3:0b:7d:6a:fe:d0:39:50:a6:25:40:9a:78:43:
                    86:7d:11:b3:ed:70:3e:a2:76:54:a3:e3:af:db:d7:
                    23:ae:0c:5c:99:f7:c5:09:ac:22:7d:74:6c:03:a5:
                    85:72:11:06:79:db:ef:ed:04:b4:68:92:18:b7:ad:
                    41:53
                Exponent: 65537 (0x10001)
        X509v3 extensions:
            X509v3 Basic Constraints: 
                CA:FALSE
            X509v3 Key Usage: 
                Digital Signature, Non Repudiation, Data Encipherment
            Netscape Comment: 
                OpenSSL Generated Certificate
            X509v3 Subject Key Identifier: 
                F9:BA:99:00:98:36:C5:14:75:D2:AB:5C:E6:95:E9:5D:27:78:28:D4
            X509v3 Authority Key Identifier: 
                keyid:3A:E3:E2:11:AA:24:2F:C6:02:6F:2B:03:89:56:68:4A:9E:CA:FA:B3

            X509v3 CRL Distribution Points: 

                Full Name:
                  URI:http://192.168.21.89/rootcrl.pem

    Signature Algorithm: sha1WithRSAEncryption
         b5:03:0b:c2:d4:dd:a4:fa:6e:66:8f:1c:b3:79:1e:d0:07:f2:
         bd:30:8d:45:11:16:8e:74:6a:ee:02:aa:a9:40:11:2b:4e:5b:
         b8:05:ac:a1:b8:27:24:db:a6:5f:54:f5:0b:57:18:a5:b2:00:
         f0:4c:98:81:3b:be:ef:a6:ab:72:7b:49:fe:0f:39:49:f1:9d:
         9c:5f:f0:e8:0e:76:13:f6:18:15:4f:f3:90:e6:74:4c:8c:9f:
         33:46:5c:3e:1c:56:4a:1d:25:40:09:80:b6:bd:2c:62:c3:18:
         13:47:40:41:e1:ed:a0:93:be:b5:75:ff:1c:13:ea:76:f6:5d:
         ed:a8:3d:71:e0:1a:be:87:dc:bf:78:e6:54:6a:6e:2e:51:43:
         7f:5e:30:cd:f9:b9:bc:a9:25:18:5f:b8:b0:e8:1e:05:04:0a:
         95:c7:2e:fb:26:1f:4b:9b:c4:4e:ae:81:23:a8:0b:a5:75:99:
         48:20:84:26:10:02:3f:33:84:a8:36:d4:94:96:5c:35:63:f7:
         92:16:08:b3:0b:ed:13:91:36:a6:e7:9d:58:d4:9d:ed:53:3e:
         d9:39:f0:02:99:c1:5b:0d:60:6f:f4:9f:76:64:69:ad:65:89:
         ea:39:d9:b4:3d:4f:9e:60:4b:25:a0:29:a5:35:ed:66:56:b7:
         b7:af:e1:d6:ab:ce:99:3e:3f:f5:13:03:ab:00:ad:9a:a4:66:
         73:d3:33:43:89:a6:04:6b:2a:aa:70:e9:f9:a9:36:cb:c2:89:
         60:26:1d:b6:30:8e:ea:9b:7b:30:81:94:f2:e3:93:87:02:bc:
         37:b0:92:1c:75:a5:93:17:a9:c7:d6:81:f1:2d:b0:95:c8:1c:
         9b:ea:56:eb:c8:c6:ec:5a:e4:7a:23:ae:fe:2c:42:a6:27:1e:
         53:94:c0:ac:31:8c:48:22:7d:2b:07:89:4a:57:36:3f:3f:69:
         c8:21:ab:88:e9:12:a9:7b:ad:ea:9e:c8:93:8f:75:c3:1d:2d:
         d9:66:ce:7f:be:b3:60:20:ff:05:1c:f2:8f:3e:b1:c7:78:ab:
         12:b4:26:04:89:60:5b:5b:c8:7a:b4:4a:c4:a0:84:22:19:93:
         22:8e:ac:35:ce:cd:83:1c:b5:24:fd:55:cd:da:c1:b5:16:67:
         9a:ee:72:fb:f9:79:b6:e3:b2:89:19:f7:fa:a4:d3:7c:b5:fe:
         c7:9e:ee:8c:20:81:da:bb:a2:65:7d:cc:11:da:b5:78:21:22:
         fb:cf:0a:bd:d0:72:fc:ef:1a:37:9d:f2:50:91:32:8a:93:94:
         91:9d:4f:c3:44:c7:b7:7c:42:50:f1:fa:32:0a:63:be:7f:c3:
         89:87:67:23:8f:41:42:c7
-----BEGIN CERTIFICATE-----
MIIFLDCCAxSgAwIBAgIBAjANBgkqhkiG9w0BAQUFADB/MQswCQYDVQQGEwJCQTEL
MAkGA1UECBMCUlMxEzARBgNVBAcTCkJhbmphIEx1a2ExHjAcBgNVBAoTFU5pa29s
aW5hIG9yZ2FuaXphY2lqYTESMBAGA1UEAxMJQ0EgdGlqZWxvMRowGAYJKoZIhvcN
AQkBFgtjYUBtYWlsLmNvbTAeFw0yMzAxMjMxODMxNThaFw0yMzA3MjQxODMxNTha
MHUxCzAJBgNVBAYTAkJBMQswCQYDVQQIEwJSUzEeMBwGA1UEChMVTmlrb2xpbmEg
b3JnYW5pemFjaWphMRgwFgYDVQQDEw9Eam9yZGplIEpvbGR6aWMxHzAdBgkqhkiG
9w0BCQEWEGRqb3JkamVAbWFpbC5jb20wggEiMA0GCSqGSIb3DQEBAQUAA4IBDwAw
ggEKAoIBAQDkBd3s4YZm3n+Qy0iWGu+lalsuf5ya7Z+7ejPEb3O9eb1MoeP8MgbA
7y9Au7zWlXy3dSQtPM65tN18E/pXrWsLAUC0FoTVOVQ/aTK0Lzk7F4upNZobGleQ
JXTM9O6NhFOf2nLE6+1eIiKrGqs6833JMAGzYlBCTEc6bW1CRBJgKArNqAH0J/YQ
kGVoOF5cZ3w9pYfuvo1Z1103XQ0QS36yMekfidAHqTrBNYUn4Ziuk/meeYYcgtwY
k6ZgtVhSzG0va8yzC31q/tA5UKYlQJp4Q4Z9EbPtcD6idlSj46/b1yOuDFyZ98UJ
rCJ9dGwDpYVyEQZ52+/tBLRokhi3rUFTAgMBAAGjgbwwgbkwCQYDVR0TBAIwADAL
BgNVHQ8EBAMCBNAwLAYJYIZIAYb4QgENBB8WHU9wZW5TU0wgR2VuZXJhdGVkIENl
cnRpZmljYXRlMB0GA1UdDgQWBBT5upkAmDbFFHXSq1zmleldJ3go1DAfBgNVHSME
GDAWgBQ64+IRqiQvxgJvKwOJVmhKnsr6szAxBgNVHR8EKjAoMCagJKAihiBodHRw
Oi8vMTkyLjE2OC4yMS44OS9yb290Y3JsLnBlbTANBgkqhkiG9w0BAQUFAAOCAgEA
tQMLwtTdpPpuZo8cs3ke0AfyvTCNRREWjnRq7gKqqUARK05buAWsobgnJNumX1T1
C1cYpbIA8EyYgTu+76arcntJ/g85SfGdnF/w6A52E/YYFU/zkOZ0TIyfM0ZcPhxW
Sh0lQAmAtr0sYsMYE0dAQeHtoJO+tXX/HBPqdvZd7ag9ceAavofcv3jmVGpuLlFD
f14wzfm5vKklGF+4sOgeBQQKlccu+yYfS5vETq6BI6gLpXWZSCCEJhACPzOEqDbU
lJZcNWP3khYIswvtE5E2puedWNSd7VM+2TnwApnBWw1gb/SfdmRprWWJ6jnZtD1P
nmBLJaAppTXtZla3t6/h1qvOmT4/9RMDqwCtmqRmc9MzQ4mmBGsqqnDp+ak2y8KJ
YCYdtjCO6pt7MIGU8uOThwK8N7CSHHWlkxepx9aB8S2wlcgcm+pW68jG7FrkeiOu
/ixCpiceU5TArDGMSCJ9KweJSlc2Pz9pyCGriOkSqXut6p7Ik491wx0t2WbOf76z
YCD/BRzyjz6xx3irErQmBIlgW1vIerRKxKCEIhmTIo6sNc7Ngxy1JP1VzdrBtRZn
mu5y+/l5tuOyiRn3+qTTfLX+x57ujCCB2ruiZX3MEdq1eCEi+88KvdBy/O8aN53y
UJEyipOUkZ1Pw0THt3xCUPH6Mgpjvn/DiYdnI49BQsc=
-----END CERTIFICATE-----
